Certificate:
    Data:
        Version: 3 (0x2)
        Serial Number: 16164578380170221284 (0xe0541e64a60156e4)
    Signature Algorithm: sha256WithRSAEncryption
        Issuer: C=US, ST=NH, L=Wolfeboro, O=Python Software Foundation, CN=PSF Infrastructure CA
        Validity
            Not Before: Sep 14 00:16:35 2014 GMT
            Not After : Sep 13 00:16:35 2016 GMT
        Subject: C=US, ST=NH, L=Wolfeboro, O=Python Software Foundation, CN=vpn.psf.io
        Subject Public Key Info:
            Public Key Algorithm: rsaEncryption
                Public-Key: (2048 bit)
                Modulus:
                    00:ab:98:4c:89:6d:44:55:c1:55:04:55:24:9f:11:
                    f9:6a:5a:34:23:4d:4b:98:57:be:90:65:ea:96:46:
                    b0:92:a1:91:7f:38:b6:2f:bc:6f:05:18:67:50:81:
                    33:cf:56:c0:c4:89:bd:c6:d6:85:44:ed:74:b6:bf:
                    86:30:e4:04:0a:30:ae:9a:1c:98:4e:da:17:73:a5:
                    f3:57:e6:b3:c3:a9:1f:b8:9b:72:b4:47:b1:18:3b:
                    93:4a:e7:77:7d:6a:2b:ef:fb:8c:c3:b0:c5:c0:70:
                    4d:b4:59:4f:2f:b6:90:64:6b:29:c9:86:6e:6f:d6:
                    c8:01:56:f4:a9:4f:ad:ce:11:28:2c:d8:5f:f1:a7:
                    f1:40:5a:f5:94:bf:c2:8a:29:be:7e:45:75:ff:d0:
                    72:5f:6c:5d:8f:25:29:60:4b:5f:f3:e8:ae:80:ca:
                    51:a0:a8:8c:c1:0b:3a:9a:09:92:12:50:35:d1:5e:
                    fd:0d:e7:5e:c3:ac:f6:68:ab:ce:7b:a9:23:a7:7a:
                    d8:41:64:44:0a:88:86:39:58:9d:43:d7:8b:58:74:
                    95:4c:8e:a3:3d:92:83:77:3a:d5:6b:11:26:b7:08:
                    8d:f8:c1:e2:3b:53:a9:31:fb:ac:e2:99:1d:26:94:
                    a3:d5:c7:7b:48:5d:88:c5:ec:71:64:4d:c7:ba:e4:
                    57:bf
                Exponent: 65537 (0x10001)
        X509v3 extensions:
            X509v3 Basic Constraints:
                CA:FALSE
            Netscape Cert Type:
                SSL Server
            X509v3 Key Usage:
                Digital Signature, Key Encipherment
            X509v3 Extended Key Usage:
                TLS Web Server Authentication
            X509v3 Subject Key Identifier:
                F6:D7:FC:EA:EE:22:9E:C6:33:E1:8A:33:B0:06:A9:A1:D2:D8:BA:F0
            X509v3 Authority Key Identifier:
                keyid:EA:CF:EF:76:48:D7:B6:2C:6E:00:31:22:A5:96:19:46:89:0B:B4:46

    Signature Algorithm: sha256WithRSAEncryption
         33:63:23:2f:62:05:01:cc:1e:6c:d2:d8:f5:f0:50:d3:10:b0:
         f9:e1:cf:d6:12:c3:a0:ef:62:4d:db:74:32:02:63:70:b1:0d:
         2c:86:74:9d:7d:17:ad:a8:7a:a5:0e:14:80:af:2d:92:12:34:
         24:37:d7:fa:5a:6a:11:ee:19:bf:b3:c0:3e:cf:4d:ed:22:cb:
         55:e6:a4:13:8b:c8:6b:46:96:a6:ef:79:41:50:8c:f1:11:8b:
         cb:a6:67:81:98:58:7b:f5:d6:5f:0b:5d:cb:77:6f:ed:65:e8:
         c2:87:6e:08:a9:2f:25:02:92:94:67:85:cf:6c:73:24:f0:d6:
         57:7b:ff:0c:7c:35:8c:c0:52:84:23:00:4b:c0:42:8a:db:f1:
         ff:31:97:2e:38:1a:bf:16:40:5b:43:23:d3:22:af:1a:6c:62:
         9d:14:e9:58:dd:b5:72:ba:03:65:77:e3:df:95:a0:1f:94:0c:
         68:64:05:03:a3:fa:3d:84:92:9c:a3:05:a4:b5:c9:30:ba:2b:
         c0:f9:33:bd:69:79:b6:72:c1:02:13:26:49:b3:99:ce:42:0e:
         f5:c7:2a:2e:d5:b1:8a:05:78:9a:d3:9c:dc:86:87:c8:d7:cc:
         0f:01:d9:ea:c1:a4:7f:57:86:a7:bb:de:5e:e4:b2:e7:74:6a:
         d6:4f:0c:c4:ff:c4:1a:63:3c:7e:31:64:91:e4:c0:43:34:8e:
         b3:b2:8f:a7:27:7b:97:ad:4b:6e:4d:81:c3:24:c0:01:0d:01:
         9d:07:7c:51:42:54:89:99:eb:01:ae:d6:9f:c3:b5:16:61:55:
         48:7c:2b:da:60:76:54:f1:d8:51:52:21:38:e5:d0:d1:f2:df:
         7a:9d:17:2a:19:67:ed:6e:51:a4:ff:da:93:02:3f:c3:44:62:
         2d:fe:b5:af:a2:87:61:e4:d3:23:0d:74:4a:40:ba:8d:44:49:
         5a:ce:9d:97:cc:ed:73:ff:0b:e9:e5:d6:71:07:99:f7:8b:64:
         fb:8b:c3:1b:63:17:d5:2f:ac:e2:83:dd:eb:ed:4b:2f:4d:0b:
         08:8d:98:f6:6e:d6:b7:42:b2:84:93:7a:8b:aa:1c:03:89:c2:
         66:0f:1d:17:d2:c2:01:8a:e2:b4:98:d8:6e:61:09:64:7b:3f:
         a5:59:bd:06:ad:b6:40:8f:8b:5a:bc:33:0b:5f:00:99:b6:7d:
         42:1a:38:cb:5b:dd:de:a2:76:09:4b:34:02:9b:39:83:5f:00:
         72:38:5c:9c:84:d1:d9:de:b7:37:a2:21:fd:0f:ad:0d:48:7f:
         8b:8d:eb:e0:36:cb:e4:ac:d1:ff:1f:8e:d7:8f:d9:d4:04:33:
         8f:34:8d:30:af:8f:76:20
-----BEGIN CERTIFICATE-----
MIIE4jCCAsqgAwIBAgIJAOBUHmSmAVbkMA0GCSqGSIb3DQEBCwUAMHMxCzAJBgNV
BAYTAlVTMQswCQYDVQQIDAJOSDESMBAGA1UEBwwJV29sZmVib3JvMSMwIQYDVQQK
DBpQeXRob24gU29mdHdhcmUgRm91bmRhdGlvbjEeMBwGA1UEAwwVUFNGIEluZnJh
c3RydWN0dXJlIENBMB4XDTE0MDkxNDAwMTYzNVoXDTE2MDkxMzAwMTYzNVowaDEL
MAkGA1UEBhMCVVMxCzAJBgNVBAgMAk5IMRIwEAYDVQQHDAlXb2xmZWJvcm8xIzAh
BgNVBAoMGlB5dGhvbiBTb2Z0d2FyZSBGb3VuZGF0aW9uMRMwEQYDVQQDDAp2cG4u
cHNmLmlvMIIBIjANBgkqhkiG9w0BAQEFAAOCAQ8AMIIBCgKCAQEAq5hMiW1EVcFV
BFUknxH5alo0I01LmFe+kGXqlkawkqGRfzi2L7xvBRhnUIEzz1bAxIm9xtaFRO10
tr+GMOQECjCumhyYTtoXc6XzV+azw6kfuJtytEexGDuTSud3fWor7/uMw7DFwHBN
tFlPL7aQZGspyYZub9bIAVb0qU+tzhEoLNhf8afxQFr1lL/Ciim+fkV1/9ByX2xd
jyUpYEtf8+iugMpRoKiMwQs6mgmSElA10V79Dedew6z2aKvOe6kjp3rYQWRECoiG
OVidQ9eLWHSVTI6jPZKDdzrVaxEmtwiN+MHiO1OpMfus4pkdJpSj1cd7SF2Ixexx
ZE3HuuRXvwIDAQABo4GDMIGAMAkGA1UdEwQCMAAwEQYJYIZIAYb4QgEBBAQDAgZA
MAsGA1UdDwQEAwIFoDATBgNVHSUEDDAKBggrBgEFBQcDATAdBgNVHQ4EFgQU9tf8
6u4insYz4YozsAapodLYuvAwHwYDVR0jBBgwFoAU6s/vdkjXtixuADEipZYZRokL
tEYwDQYJKoZIhvcNAQELBQADggIBADNjIy9iBQHMHmzS2PXwUNMQsPnhz9YSw6Dv
Yk3bdDICY3CxDSyGdJ19F62oeqUOFICvLZISNCQ31/paahHuGb+zwD7PTe0iy1Xm
pBOLyGtGlqbveUFQjPERi8umZ4GYWHv11l8LXct3b+1l6MKHbgipLyUCkpRnhc9s
cyTw1ld7/wx8NYzAUoQjAEvAQorb8f8xly44Gr8WQFtDI9MirxpsYp0U6VjdtXK6
A2V349+VoB+UDGhkBQOj+j2EkpyjBaS1yTC6K8D5M71pebZywQITJkmzmc5CDvXH
Ki7VsYoFeJrTnNyGh8jXzA8B2erBpH9Xhqe73l7ksud0atZPDMT/xBpjPH4xZJHk
wEM0jrOyj6cne5etS25NgcMkwAENAZ0HfFFCVImZ6wGu1p/DtRZhVUh8K9pgdlTx
2FFSITjl0NHy33qdFyoZZ+1uUaT/2pMCP8NEYi3+ta+ih2Hk0yMNdEpAuo1ESVrO
nZfM7XP/C+nl1nEHmfeLZPuLwxtjF9UvrOKD3evtSy9NCwiNmPZu1rdCsoSTeouq
HAOJwmYPHRfSwgGK4rSY2G5hCWR7P6VZvQattkCPi1q8MwtfAJm2fUIaOMtb3d6i
dglLNAKbOYNfAHI4XJyE0dnetzeiIf0PrQ1If4uN6+A2y+Ss0f8fjteP2dQEM480
jTCvj3Yg
-----END CERTIFICATE-----
